target datalayout = "e-m:e-p270:32:32-p271:32:32-p272:64:64-i64:64-i128:128-f80:128-n8:16:32:64-S128"
target triple = "x86_64-unknown-linux-gnu"

%"class.OpenColorIO_v2_4dev::OpCPU" = type { ptr }
%"class.OpenColorIO_v2_4dev::(anonymous namespace)::ScaleRenderer" = type { %"class.OpenColorIO_v2_4dev::OpCPU", [4 x float] }

; Function Attrs: mustprogress nounwind uwtable
define internal void @_ZNK19OpenColorIO_v2_4dev12_GLOBAL__N_113ScaleRenderer5applyEPKvPvl(ptr noundef nonnull align 8 dereferenceable(24) %this, ptr noundef %inImg, ptr noundef %outImg, i64 noundef %numPixels) unnamed_addr #5 align 2 {
entry:
  %this.addr = alloca ptr, align 8
  %inImg.addr = alloca ptr, align 8
  %outImg.addr = alloca ptr, align 8
  %numPixels.addr = alloca i64, align 8
  %in = alloca ptr, align 8
  %out = alloca ptr, align 8
  %idx = alloca i64, align 8
  store ptr %this, ptr %this.addr, align 8
  store ptr %inImg, ptr %inImg.addr, align 8
  store ptr %outImg, ptr %outImg.addr, align 8
  store i64 %numPixels, ptr %numPixels.addr, align 8
  %this1 = load ptr, ptr %this.addr, align 8
  %0 = load ptr, ptr %inImg.addr, align 8
  store ptr %0, ptr %in, align 8
  %1 = load ptr, ptr %outImg.addr, align 8
  store ptr %1, ptr %out, align 8
  store i64 0, ptr %idx, align 8
  br label %for.cond

for.cond:                                         ; preds = %for.inc, %entry
  %2 = load i64, ptr %idx, align 8
  %3 = load i64, ptr %numPixels.addr, align 8
  %cmp = icmp slt i64 %2, %3
  br i1 %cmp, label %for.body, label %for.end

for.body:                                         ; preds = %for.cond
  %4 = load ptr, ptr %in, align 8
  %arrayidx = getelementptr inbounds float, ptr %4, i64 0
  %5 = load float, ptr %arrayidx, align 4
  %m_scale = getelementptr inbounds %"class.OpenColorIO_v2_4dev::(anonymous namespace)::ScaleRenderer", ptr %this1, i32 0, i32 1
  %arrayidx2 = getelementptr inbounds [4 x float], ptr %m_scale, i64 0, i64 0
  %6 = load float, ptr %arrayidx2, align 8
  %mul = fmul float %5, %6
  %7 = load ptr, ptr %out, align 8
  %arrayidx3 = getelementptr inbounds float, ptr %7, i64 0
  store float %mul, ptr %arrayidx3, align 4
  %8 = load ptr, ptr %in, align 8
  %arrayidx4 = getelementptr inbounds float, ptr %8, i64 1
  %9 = load float, ptr %arrayidx4, align 4
  %m_scale5 = getelementptr inbounds %"class.OpenColorIO_v2_4dev::(anonymous namespace)::ScaleRenderer", ptr %this1, i32 0, i32 1
  %arrayidx6 = getelementptr inbounds [4 x float], ptr %m_scale5, i64 0, i64 1
  %10 = load float, ptr %arrayidx6, align 4
  %mul7 = fmul float %9, %10
  %11 = load ptr, ptr %out, align 8
  %arrayidx8 = getelementptr inbounds float, ptr %11, i64 1
  store float %mul7, ptr %arrayidx8, align 4
  %12 = load ptr, ptr %in, align 8
  %arrayidx9 = getelementptr inbounds float, ptr %12, i64 2
  %13 = load float, ptr %arrayidx9, align 4
  %m_scale10 = getelementptr inbounds %"class.OpenColorIO_v2_4dev::(anonymous namespace)::ScaleRenderer", ptr %this1, i32 0, i32 1
  %arrayidx11 = getelementptr inbounds [4 x float], ptr %m_scale10, i64 0, i64 2
  %14 = load float, ptr %arrayidx11, align 8
  %mul12 = fmul float %13, %14
  %15 = load ptr, ptr %out, align 8
  %arrayidx13 = getelementptr inbounds float, ptr %15, i64 2
  store float %mul12, ptr %arrayidx13, align 4
  %16 = load ptr, ptr %in, align 8
  %arrayidx14 = getelementptr inbounds float, ptr %16, i64 3
  %17 = load float, ptr %arrayidx14, align 4
  %m_scale15 = getelementptr inbounds %"class.OpenColorIO_v2_4dev::(anonymous namespace)::ScaleRenderer", ptr %this1, i32 0, i32 1
  %arrayidx16 = getelementptr inbounds [4 x float], ptr %m_scale15, i64 0, i64 3
  %18 = load float, ptr %arrayidx16, align 4
  %mul17 = fmul float %17, %18
  %19 = load ptr, ptr %out, align 8
  %arrayidx18 = getelementptr inbounds float, ptr %19, i64 3
  store float %mul17, ptr %arrayidx18, align 4
  %20 = load ptr, ptr %in, align 8
  %add.ptr = getelementptr inbounds float, ptr %20, i64 4
  store ptr %add.ptr, ptr %in, align 8
  %21 = load ptr, ptr %out, align 8
  %add.ptr19 = getelementptr inbounds float, ptr %21, i64 4
  store ptr %add.ptr19, ptr %out, align 8
  br label %for.inc

for.inc:                                          ; preds = %for.body
  %22 = load i64, ptr %idx, align 8
  %inc = add nsw i64 %22, 1
  store i64 %inc, ptr %idx, align 8
  br label %for.cond, !llvm.loop !6

for.end:                                          ; preds = %for.cond
  ret void
}