; Function Attrs: mustprogress nofree norecurse nosync nounwind memory(readwrite, inaccessiblemem: none) uwtable
define internal void @_ZNK19OpenColorIO_v2_4dev12_GLOBAL__N_113ScaleRenderer5applyEPKvPvl(ptr nocapture noundef nonnull readonly align 8 dereferenceable(24) %this, ptr nocapture noundef readonly %inImg, ptr nocapture noundef writeonly %outImg, i64 noundef %numPixels) unnamed_addr #8 align 2 {
entry:
  %cmp10 = icmp sgt i64 %numPixels, 0
  br i1 %cmp10, label %for.body.lr.ph, label %for.end

for.body.lr.ph:                                   ; preds = %entry
  %m_scale = getelementptr inbounds i8, ptr %this, i64 8
  %arrayidx6 = getelementptr inbounds i8, ptr %this, i64 12
  %arrayidx11 = getelementptr inbounds i8, ptr %this, i64 16
  %arrayidx16 = getelementptr inbounds i8, ptr %this, i64 20
  br label %for.body

for.body:                                         ; preds = %for.body.lr.ph, %for.body
  %idx.013 = phi i64 [ 0, %for.body.lr.ph ], [ %inc, %for.body ]
  %out.012 = phi ptr [ %outImg, %for.body.lr.ph ], [ %add.ptr19, %for.body ]
  %in.011 = phi ptr [ %inImg, %for.body.lr.ph ], [ %add.ptr, %for.body ]
  %0 = load float, ptr %in.011, align 4
  %1 = load float, ptr %m_scale, align 8
  %mul = fmul float %0, %1
  store float %mul, ptr %out.012, align 4
  %arrayidx4 = getelementptr inbounds i8, ptr %in.011, i64 4
  %2 = load float, ptr %arrayidx4, align 4
  %3 = load float, ptr %arrayidx6, align 4
  %mul7 = fmul float %2, %3
  %arrayidx8 = getelementptr inbounds i8, ptr %out.012, i64 4
  store float %mul7, ptr %arrayidx8, align 4
  %arrayidx9 = getelementptr inbounds i8, ptr %in.011, i64 8
  %4 = load float, ptr %arrayidx9, align 4
  %5 = load float, ptr %arrayidx11, align 8
  %mul12 = fmul float %4, %5
  %arrayidx13 = getelementptr inbounds i8, ptr %out.012, i64 8
  store float %mul12, ptr %arrayidx13, align 4
  %arrayidx14 = getelementptr inbounds i8, ptr %in.011, i64 12
  %6 = load float, ptr %arrayidx14, align 4
  %7 = load float, ptr %arrayidx16, align 4
  %mul17 = fmul float %6, %7
  %arrayidx18 = getelementptr inbounds i8, ptr %out.012, i64 12
  store float %mul17, ptr %arrayidx18, align 4
  %add.ptr = getelementptr inbounds i8, ptr %in.011, i64 16
  %add.ptr19 = getelementptr inbounds i8, ptr %out.012, i64 16
  %inc = add nuw nsw i64 %idx.013, 1
  %exitcond.not = icmp eq i64 %inc, %numPixels
  br i1 %exitcond.not, label %for.end, label %for.body, !llvm.loop !18

for.end:                                          ; preds = %for.body, %entry
  ret void
}